target datalayout = "e-m:e-p270:32:32-p271:32:32-p272:64:64-i64:64-i128:128-f80:128-n8:16:32:64-S128"
target triple = "x86_64-pc-linux-gnu"

%"class.pkpy::Compiler" = type { %"struct.pkpy::Lexer", %"class.pkpy::stack_no_copy.3", ptr, i8, i32, %"class.std::vector" }
%"struct.pkpy::Lexer" = type <{ ptr, %"class.std::shared_ptr", ptr, ptr, i32, [4 x i8], %"class.std::vector", %"class.pkpy::stack_no_copy", i32, [4 x i8] }>
%"class.std::shared_ptr" = type { %"class.std::__shared_ptr" }
%"class.std::__shared_ptr" = type { ptr, %"class.std::__shared_count" }
%"class.std::__shared_count" = type { ptr }
%"class.pkpy::stack_no_copy" = type { %"class.pkpy::stack" }
%"class.pkpy::stack" = type { %"class.pkpy::small_vector_2" }
%"class.pkpy::small_vector_2" = type { %"class.pkpy::small_vector" }
%"class.pkpy::small_vector" = type { [32 x i8], ptr, ptr, ptr }
%"class.pkpy::stack_no_copy.3" = type { %"class.pkpy::stack.4" }
%"class.pkpy::stack.4" = type { %"class.std::vector.5" }
%"class.std::vector.5" = type { %"struct.std::_Vector_base.6" }
%"struct.std::_Vector_base.6" = type { %"struct.std::_Vector_base<pkpy::CodeEmitContext, std::allocator<pkpy::CodeEmitContext>>::_Vector_impl" }
%"struct.std::_Vector_base<pkpy::CodeEmitContext, std::allocator<pkpy::CodeEmitContext>>::_Vector_impl" = type { %"struct.std::_Vector_base<pkpy::CodeEmitContext, std::allocator<pkpy::CodeEmitContext>>::_Vector_impl_data" }
%"struct.std::_Vector_base<pkpy::CodeEmitContext, std::allocator<pkpy::CodeEmitContext>>::_Vector_impl_data" = type { ptr, ptr, ptr }
%"class.std::vector" = type { %"struct.std::_Vector_base" }
%"struct.std::_Vector_base" = type { %"struct.std::_Vector_base<pkpy::Token, std::allocator<pkpy::Token>>::_Vector_impl" }
%"struct.std::_Vector_base<pkpy::Token, std::allocator<pkpy::Token>>::_Vector_impl" = type { %"struct.std::_Vector_base<pkpy::Token, std::allocator<pkpy::Token>>::_Vector_impl_data" }
%"struct.std::_Vector_base<pkpy::Token, std::allocator<pkpy::Token>>::_Vector_impl_data" = type { ptr, ptr, ptr }

; Function Attrs: mustprogress nounwind uwtable
define linkonce_odr noundef i64 @_ZNKSt6vectorIN4pkpy15CodeEmitContextESaIS1_EE4sizeEv(ptr noundef nonnull align 8 dereferenceable(24) %0) #5 comdat align 2 {
  %2 = alloca ptr, align 8
  store ptr %0, ptr %2, align 8
  %3 = load ptr, ptr %2, align 8
  %4 = getelementptr inbounds %"struct.std::_Vector_base.6", ptr %3, i32 0, i32 0
  %5 = getelementptr inbounds %"struct.std::_Vector_base<pkpy::CodeEmitContext, std::allocator<pkpy::CodeEmitContext>>::_Vector_impl_data", ptr %4, i32 0, i32 1
  %6 = load ptr, ptr %5, align 8
  %7 = getelementptr inbounds %"struct.std::_Vector_base.6", ptr %3, i32 0, i32 0
  %8 = getelementptr inbounds %"struct.std::_Vector_base<pkpy::CodeEmitContext, std::allocator<pkpy::CodeEmitContext>>::_Vector_impl_data", ptr %7, i32 0, i32 0
  %9 = load ptr, ptr %8, align 8
  %10 = ptrtoint ptr %6 to i64
  %11 = ptrtoint ptr %9 to i64
  %12 = sub i64 %10, %11
  %13 = sdiv exact i64 %12, 232
  ret i64 %13
}

; Function Attrs: mustprogress nounwind uwtable
define linkonce_odr noundef i64 @_ZNK4pkpy5stackINS_15CodeEmitContextESt6vectorIS1_SaIS1_EEE4sizeEv(ptr noundef nonnull align 8 dereferenceable(24) %0) #5 comdat align 2 {
  %2 = alloca ptr, align 8
  store ptr %0, ptr %2, align 8
  %3 = load ptr, ptr %2, align 8
  %4 = getelementptr inbounds %"class.pkpy::stack.4", ptr %3, i32 0, i32 0
  %5 = call noundef i64 @_ZNKSt6vectorIN4pkpy15CodeEmitContextESaIS1_EE4sizeEv(ptr noundef nonnull align 8 dereferenceable(24) %4) #3
  ret i64 %5
}

; Function Attrs: mustprogress uwtable
define noundef i32 @_ZNK4pkpy8Compiler10name_scopeEv(ptr noundef nonnull align 8 dereferenceable(200) %0) #4 align 2 {
  %2 = alloca ptr, align 8
  %3 = alloca i32, align 4
  store ptr %0, ptr %2, align 8
  %4 = load ptr, ptr %2, align 8
  %5 = getelementptr inbounds %"class.pkpy::Compiler", ptr %4, i32 0, i32 1
  %6 = call noundef i64 @_ZNK4pkpy5stackINS_15CodeEmitContextESt6vectorIS1_SaIS1_EEE4sizeEv(ptr noundef nonnull align 8 dereferenceable(24) %5)
  %7 = icmp ugt i64 %6, 1
  %8 = select i1 %7, i32 0, i32 1
  store i32 %8, ptr %3, align 4
  %9 = getelementptr inbounds %"class.pkpy::Compiler", ptr %4, i32 0, i32 3
  %10 = load i8, ptr %9, align 8
  %11 = trunc i8 %10 to i1
  br i1 %11, label %12, label %16

12:                                               ; preds = %1
  %13 = load i32, ptr %3, align 4
  %14 = icmp eq i32 %13, 1
  br i1 %14, label %15, label %16

15:                                               ; preds = %12
  store i32 2, ptr %3, align 4
  br label %16

16:                                               ; preds = %15, %12, %1
  %17 = load i32, ptr %3, align 4
  ret i32 %17
}