; Function Attrs: mustprogress nofree norecurse nosync nounwind willreturn memory(argmem: read) uwtable
define noundef range(i32 0, 3) i32 @_ZNK4pkpy8Compiler10name_scopeEv(ptr noundef nonnull readonly align 8 captures(none) dereferenceable(200) %0) local_unnamed_addr #4 align 2 {
  %2 = getelementptr inbounds nuw i8, ptr %0, i64 136
  %3 = getelementptr inbounds nuw i8, ptr %0, i64 144
  %4 = load ptr, ptr %3, align 8
  %5 = load ptr, ptr %2, align 8
  %6 = ptrtoint ptr %4 to i64
  %7 = ptrtoint ptr %5 to i64
  %8 = sub i64 %6, %7
  %9 = sdiv exact i64 %8, 232
  %10 = icmp ult i64 %9, 2
  %11 = zext i1 %10 to i32
  %12 = getelementptr inbounds nuw i8, ptr %0, i64 168
  %13 = load i8, ptr %12, align 8
  %14 = trunc i8 %13 to i1
  %or.cond = and i1 %10, %14
  %spec.store.select = select i1 %or.cond, i32 2, i32 %11
  ret i32 %spec.store.select
}